; Function Attrs: mustprogress nounwind uwtable
define hidden noundef zeroext i1 @_ZN9G1CardSet17release_containerEPv(ptr nocapture noundef nonnull readnone align 8 dereferenceable(40) %0, ptr noundef %1) local_unnamed_addr #1 align 2 {
  %3 = ptrtoint ptr %1 to i64
  %4 = load ptr, ptr @_ZN9G1CardSet11FullCardSetE, align 8
  %5 = icmp eq ptr %4, %1
  %6 = and i64 %3, 3
  %7 = icmp eq i64 %6, 0
  %or.cond = or i1 %7, %5
  br i1 %or.cond, label %14, label %8

8:                                                ; preds = %2
  %9 = and i64 %3, -4
  %10 = inttoptr i64 %9 to ptr
  %11 = load volatile i64, ptr %10, align 8
  tail call void asm sideeffect "", "~{memory},~{dirflag},~{fpsr},~{flags}"() #19, !srcloc !10
  %12 = tail call noundef i64 asm sideeffect "lock xaddq $0,($2)", "=r,0,r,~{cc},~{memory},~{dirflag},~{fpsr},~{flags}"(i64 -2, ptr nonnull %10) #19, !srcloc !9
  %13 = icmp eq i64 %12, 3
  br label %14

14:                                               ; preds = %2, %8
  %.0 = phi i1 [ %13, %8 ], [ false, %2 ]
  ret i1 %.0
}